; Function Attrs: mustprogress nofree norecurse nosync nounwind willreturn memory(write, argmem: readwrite, inaccessiblemem: none) uwtable
define hidden range(i32 0, 2) i32 @opj_bio_flush(ptr noundef captures(none) initializes((28, 32)) %0) local_unnamed_addr #4 {
  %2 = getelementptr inbounds nuw i8, ptr %0, i64 24
  %3 = load i32, ptr %2, align 8, !tbaa !12
  %4 = shl i32 %3, 8
  %5 = and i32 %4, 65280
  store i32 %5, ptr %2, align 8, !tbaa !12
  %6 = icmp eq i32 %5, 65280
  %7 = select i1 %6, i32 7, i32 8
  %8 = getelementptr inbounds nuw i8, ptr %0, i64 28
  store i32 %7, ptr %8, align 4, !tbaa !13
  %9 = getelementptr inbounds nuw i8, ptr %0, i64 16
  %10 = load ptr, ptr %9, align 8, !tbaa !3
  %11 = getelementptr inbounds nuw i8, ptr %0, i64 8
  %12 = load ptr, ptr %11, align 8, !tbaa !11
  %.not.i = icmp ult ptr %10, %12
  br i1 %.not.i, label %13, label %opj_bio_byteout.exit.thread

13:                                               ; preds = %1
  %14 = trunc i32 %3 to i8
  %15 = getelementptr inbounds nuw i8, ptr %10, i64 1
  store ptr %15, ptr %9, align 8, !tbaa !3
  store i8 %14, ptr %10, align 1, !tbaa !14
  %16 = load i32, ptr %8, align 4, !tbaa !13
  %17 = icmp eq i32 %16, 7
  br i1 %17, label %18, label %opj_bio_byteout.exit.thread

18:                                               ; preds = %13
  %19 = load i32, ptr %2, align 8, !tbaa !12
  %20 = shl i32 %19, 8
  %21 = and i32 %20, 65280
  store i32 %21, ptr %2, align 8, !tbaa !12
  %22 = icmp eq i32 %21, 65280
  %23 = select i1 %22, i32 7, i32 8
  store i32 %23, ptr %8, align 4, !tbaa !13
  %24 = load ptr, ptr %9, align 8, !tbaa !3
  %25 = load ptr, ptr %11, align 8, !tbaa !11
  %.not.i4 = icmp ult ptr %24, %25
  br i1 %.not.i4, label %opj_bio_byteout.exit6, label %opj_bio_byteout.exit.thread

opj_bio_byteout.exit6:                            ; preds = %18
  %26 = trunc i32 %19 to i8
  %27 = getelementptr inbounds nuw i8, ptr %24, i64 1
  store ptr %27, ptr %9, align 8, !tbaa !3
  store i8 %26, ptr %24, align 1, !tbaa !14
  br label %opj_bio_byteout.exit.thread

opj_bio_byteout.exit.thread:                      ; preds = %18, %1, %13, %opj_bio_byteout.exit6
  %.0 = phi i32 [ 1, %opj_bio_byteout.exit6 ], [ 1, %13 ], [ 0, %1 ], [ 0, %18 ]
  ret i32 %.0
}